target datalayout = "e-m:e-p270:32:32-p271:32:32-p272:64:64-i64:64-i128:128-f80:128-n8:16:32:64-S128"
target triple = "x86_64-pc-linux-gnu"

%struct.strbuf = type { i64, i64, ptr }
%struct.stash_info = type { %struct.object_id, %struct.object_id, %struct.object_id, %struct.object_id, %struct.object_id, %struct.object_id, %struct.object_id, %struct.object_id, %struct.strbuf, i32, i32 }
%struct.object_id = type { [32 x i8], i32 }

@the_repository = external global ptr, align 8
@__const.get_stash_info.symbolic = private unnamed_addr constant %struct.strbuf { i64 0, i64 0, ptr @strbuf_slopbuf }, align 8
@__const.get_stash_info.refs_msg = private unnamed_addr constant %struct.strbuf { i64 0, i64 0, ptr @strbuf_slopbuf }, align 8
@.str.17 = private unnamed_addr constant [6 x i8] c" '%s'\00", align 1
@stderr = external global ptr, align 8
@.str.18 = private unnamed_addr constant [32 x i8] c"Too many revisions specified:%s\00", align 1
@ref_stash = internal constant [11 x i8] c"refs/stash\00", align 1
@.str.19 = private unnamed_addr constant [24 x i8] c"No stash entries found.\00", align 1
@.str.20 = private unnamed_addr constant [7 x i8] c"%s@{0}\00", align 1
@.str.21 = private unnamed_addr constant [11 x i8] c"0123456789\00", align 1
@.str.22 = private unnamed_addr constant [8 x i8] c"%s@{%s}\00", align 1
@.str.23 = private unnamed_addr constant [28 x i8] c"%s is not a valid reference\00", align 1
@.str.24 = private unnamed_addr constant [6 x i8] c"%s^3:\00", align 1
@.str.25 = private unnamed_addr constant [1 x i8] zeroinitializer, align 1
@git_gettext_enabled = external global i32, align 4

; Function Attrs: inlinehint nounwind uwtable
define internal i32 @const_error() #5 {
  ret i32 -1
}

; Function Attrs: inlinehint nounwind uwtable
define internal void @strbuf_addstr(ptr noundef %0, ptr noundef %1) #5 {
  %3 = alloca ptr, align 8
  %4 = alloca ptr, align 8
  store ptr %0, ptr %3, align 8, !tbaa !127
  store ptr %1, ptr %4, align 8, !tbaa !11
  %5 = load ptr, ptr %3, align 8, !tbaa !127
  %6 = load ptr, ptr %4, align 8, !tbaa !11
  %7 = load ptr, ptr %4, align 8, !tbaa !11
  %8 = call i64 @strlen(ptr noundef %7) #11
  call void @strbuf_add(ptr noundef %5, ptr noundef %6, i64 noundef %8)
  ret void
}

; Function Attrs: inlinehint nounwind uwtable
define internal ptr @_(ptr noundef %0) #5 {
  %2 = alloca ptr, align 8
  %3 = alloca ptr, align 8
  store ptr %0, ptr %3, align 8, !tbaa !11
  %4 = load ptr, ptr %3, align 8, !tbaa !11
  %5 = load i8, ptr %4, align 1, !tbaa !58
  %6 = icmp ne i8 %5, 0
  br i1 %6, label %8, label %7

7:                                                ; preds = %1
  store ptr @.str.25, ptr %2, align 8
  br label %16

8:                                                ; preds = %1
  %9 = load i32, ptr @git_gettext_enabled, align 4, !tbaa !4
  %10 = icmp ne i32 %9, 0
  br i1 %10, label %13, label %11

11:                                               ; preds = %8
  %12 = load ptr, ptr %3, align 8, !tbaa !11
  store ptr %12, ptr %2, align 8
  br label %16

13:                                               ; preds = %8
  %14 = load ptr, ptr %3, align 8, !tbaa !11
  %15 = call ptr @dcgettext(ptr noundef null, ptr noundef %14, i32 noundef 5) #9
  store ptr %15, ptr %2, align 8
  br label %16

16:                                               ; preds = %13, %11, %7
  %17 = load ptr, ptr %2, align 8
  ret ptr %17
}

; Function Attrs: nounwind uwtable
define internal i32 @get_stash_info(ptr noundef %0, i32 noundef %1, ptr noundef %2) #0 {
  %4 = alloca i32, align 4
  %5 = alloca ptr, align 8
  %6 = alloca i32, align 4
  %7 = alloca ptr, align 8
  %8 = alloca i32, align 4
  %9 = alloca ptr, align 8
  %10 = alloca ptr, align 8
  %11 = alloca ptr, align 8
  %12 = alloca ptr, align 8
  %13 = alloca %struct.object_id, align 4
  %14 = alloca %struct.strbuf, align 8
  %15 = alloca i32, align 4
  %16 = alloca %struct.strbuf, align 8
  %17 = alloca i32, align 4
  store ptr %0, ptr %5, align 8, !tbaa !109
  store i32 %1, ptr %6, align 4, !tbaa !4
  store ptr %2, ptr %7, align 8, !tbaa !8
  call void @llvm.lifetime.start.p0(i64 4, ptr %8) #9
  call void @llvm.lifetime.start.p0(i64 8, ptr %9) #9
  call void @llvm.lifetime.start.p0(i64 8, ptr %10) #9
  call void @llvm.lifetime.start.p0(i64 8, ptr %11) #9
  call void @llvm.lifetime.start.p0(i64 8, ptr %12) #9
  store ptr null, ptr %12, align 8, !tbaa !11
  call void @llvm.lifetime.start.p0(i64 36, ptr %13) #9
  call void @llvm.lifetime.start.p0(i64 24, ptr %14) #9
  call void @llvm.memcpy.p0.p0.i64(ptr align 8 %14, ptr align 8 @__const.get_stash_info.symbolic, i64 24, i1 false)
  %18 = load i32, ptr %6, align 4, !tbaa !4
  %19 = icmp sgt i32 %18, 1
  br i1 %19, label %20, label %40

20:                                               ; preds = %3
  call void @llvm.lifetime.start.p0(i64 4, ptr %15) #9
  call void @llvm.lifetime.start.p0(i64 24, ptr %16) #9
  call void @llvm.memcpy.p0.p0.i64(ptr align 8 %16, ptr align 8 @__const.get_stash_info.refs_msg, i64 24, i1 false)
  store i32 0, ptr %15, align 4, !tbaa !4
  br label %21

21:                                               ; preds = %31, %20
  %22 = load i32, ptr %15, align 4, !tbaa !4
  %23 = load i32, ptr %6, align 4, !tbaa !4
  %24 = icmp slt i32 %22, %23
  br i1 %24, label %25, label %34

25:                                               ; preds = %21
  %26 = load ptr, ptr %7, align 8, !tbaa !8
  %27 = load i32, ptr %15, align 4, !tbaa !4
  %28 = sext i32 %27 to i64
  %29 = getelementptr inbounds ptr, ptr %26, i64 %28
  %30 = load ptr, ptr %29, align 8, !tbaa !11
  call void (ptr, ptr, ...) @strbuf_addf(ptr noundef %16, ptr noundef @.str.17, ptr noundef %30)
  br label %31

31:                                               ; preds = %25
  %32 = load i32, ptr %15, align 4, !tbaa !4
  %33 = add nsw i32 %32, 1
  store i32 %33, ptr %15, align 4, !tbaa !4
  br label %21, !llvm.loop !111

34:                                               ; preds = %21
  %35 = load ptr, ptr @stderr, align 8, !tbaa !52
  %36 = call ptr @_(ptr noundef @.str.18)
  %37 = getelementptr inbounds nuw %struct.strbuf, ptr %16, i32 0, i32 2
  %38 = load ptr, ptr %37, align 8, !tbaa !112
  %39 = call i32 (ptr, ptr, ...) @fprintf_ln(ptr noundef %35, ptr noundef %36, ptr noundef %38)
  call void @strbuf_release(ptr noundef %16)
  store i32 -1, ptr %4, align 4
  store i32 1, ptr %17, align 4
  call void @llvm.lifetime.end.p0(i64 24, ptr %16) #9
  call void @llvm.lifetime.end.p0(i64 4, ptr %15) #9
  br label %144

40:                                               ; preds = %3
  %41 = load i32, ptr %6, align 4, !tbaa !4
  %42 = icmp eq i32 %41, 1
  br i1 %42, label %43, label %47

43:                                               ; preds = %40
  %44 = load ptr, ptr %7, align 8, !tbaa !8
  %45 = getelementptr inbounds ptr, ptr %44, i64 0
  %46 = load ptr, ptr %45, align 8, !tbaa !11
  store ptr %46, ptr %12, align 8, !tbaa !11
  br label %47

47:                                               ; preds = %43, %40
  %48 = load ptr, ptr %12, align 8, !tbaa !11
  %49 = icmp ne ptr %48, null
  br i1 %49, label %62, label %50

50:                                               ; preds = %47
  %51 = load ptr, ptr @the_repository, align 8, !tbaa !13
  %52 = call ptr @get_main_ref_store(ptr noundef %51)
  %53 = call i32 @refs_ref_exists(ptr noundef %52, ptr noundef @ref_stash)
  %54 = icmp ne i32 %53, 0
  br i1 %54, label %59, label %55

55:                                               ; preds = %50
  %56 = load ptr, ptr @stderr, align 8, !tbaa !52
  %57 = call ptr @_(ptr noundef @.str.19)
  %58 = call i32 (ptr, ptr, ...) @fprintf_ln(ptr noundef %56, ptr noundef %57)
  store i32 -1, ptr %4, align 4
  store i32 1, ptr %17, align 4
  br label %144

59:                                               ; preds = %50
  %60 = load ptr, ptr %5, align 8, !tbaa !109
  %61 = getelementptr inbounds nuw %struct.stash_info, ptr %60, i32 0, i32 8
  call void (ptr, ptr, ...) @strbuf_addf(ptr noundef %61, ptr noundef @.str.20, ptr noundef @ref_stash)
  br label %77

62:                                               ; preds = %47
  %63 = load ptr, ptr %12, align 8, !tbaa !11
  %64 = call i64 @strspn(ptr noundef %63, ptr noundef @.str.21) #11
  %65 = load ptr, ptr %12, align 8, !tbaa !11
  %66 = call i64 @strlen(ptr noundef %65) #11
  %67 = icmp eq i64 %64, %66
  br i1 %67, label %68, label %72

68:                                               ; preds = %62
  %69 = load ptr, ptr %5, align 8, !tbaa !109
  %70 = getelementptr inbounds nuw %struct.stash_info, ptr %69, i32 0, i32 8
  %71 = load ptr, ptr %12, align 8, !tbaa !11
  call void (ptr, ptr, ...) @strbuf_addf(ptr noundef %70, ptr noundef @.str.22, ptr noundef @ref_stash, ptr noundef %71)
  br label %76

72:                                               ; preds = %62
  %73 = load ptr, ptr %5, align 8, !tbaa !109
  %74 = getelementptr inbounds nuw %struct.stash_info, ptr %73, i32 0, i32 8
  %75 = load ptr, ptr %12, align 8, !tbaa !11
  call void @strbuf_addstr(ptr noundef %74, ptr noundef %75)
  br label %76

76:                                               ; preds = %72, %68
  br label %77

77:                                               ; preds = %76, %59
  %78 = load ptr, ptr %5, align 8, !tbaa !109
  %79 = getelementptr inbounds nuw %struct.stash_info, ptr %78, i32 0, i32 8
  %80 = getelementptr inbounds nuw %struct.strbuf, ptr %79, i32 0, i32 2
  %81 = load ptr, ptr %80, align 8, !tbaa !113
  store ptr %81, ptr %11, align 8, !tbaa !11
  %82 = load ptr, ptr @the_repository, align 8, !tbaa !13
  %83 = load ptr, ptr %11, align 8, !tbaa !11
  %84 = load ptr, ptr %5, align 8, !tbaa !109
  %85 = getelementptr inbounds nuw %struct.stash_info, ptr %84, i32 0, i32 0
  %86 = call i32 @repo_get_oid(ptr noundef %82, ptr noundef %83, ptr noundef %85)
  %87 = icmp ne i32 %86, 0
  br i1 %87, label %88, label %93

88:                                               ; preds = %77
  %89 = call ptr @_(ptr noundef @.str.23)
  %90 = load ptr, ptr %11, align 8, !tbaa !11
  %91 = call i32 (ptr, ...) @error(ptr noundef %89, ptr noundef %90)
  %92 = call i32 @const_error()
  store i32 %92, ptr %4, align 4
  store i32 1, ptr %17, align 4
  br label %144

93:                                               ; preds = %77
  %94 = load ptr, ptr %5, align 8, !tbaa !109
  %95 = load ptr, ptr %11, align 8, !tbaa !11
  call void @assert_stash_like(ptr noundef %94, ptr noundef %95)
  %96 = load ptr, ptr %5, align 8, !tbaa !109
  %97 = getelementptr inbounds nuw %struct.stash_info, ptr %96, i32 0, i32 7
  %98 = load ptr, ptr %11, align 8, !tbaa !11
  %99 = call i32 (ptr, ptr, ...) @get_oidf(ptr noundef %97, ptr noundef @.str.24, ptr noundef %98)
  %100 = icmp ne i32 %99, 0
  %101 = xor i1 %100, true
  %102 = zext i1 %101 to i32
  %103 = load ptr, ptr %5, align 8, !tbaa !109
  %104 = getelementptr inbounds nuw %struct.stash_info, ptr %103, i32 0, i32 10
  store i32 %102, ptr %104, align 4, !tbaa !105
  %105 = load ptr, ptr %11, align 8, !tbaa !11
  %106 = call ptr @strchrnul(ptr noundef %105, i32 noundef 64) #11
  store ptr %106, ptr %9, align 8, !tbaa !11
  %107 = load ptr, ptr %11, align 8, !tbaa !11
  %108 = load ptr, ptr %9, align 8, !tbaa !11
  %109 = load ptr, ptr %11, align 8, !tbaa !11
  %110 = ptrtoint ptr %108 to i64
  %111 = ptrtoint ptr %109 to i64
  %112 = sub i64 %110, %111
  call void @strbuf_add(ptr noundef %14, ptr noundef %107, i64 noundef %112)
  %113 = load ptr, ptr @the_repository, align 8, !tbaa !13
  %114 = getelementptr inbounds nuw %struct.strbuf, ptr %14, i32 0, i32 2
  %115 = load ptr, ptr %114, align 8, !tbaa !112
  %116 = getelementptr inbounds nuw %struct.strbuf, ptr %14, i32 0, i32 1
  %117 = load i64, ptr %116, align 8, !tbaa !114
  %118 = trunc i64 %117 to i32
  %119 = call i32 @repo_dwim_ref(ptr noundef %113, ptr noundef %115, i32 noundef %118, ptr noundef %13, ptr noundef %10, i32 noundef 0)
  store i32 %119, ptr %8, align 4, !tbaa !4
  call void @strbuf_release(ptr noundef %14)
  %120 = load i32, ptr %8, align 4, !tbaa !4
  switch i32 %120, label %132 [
    i32 0, label %121
    i32 1, label %124
  ]

121:                                              ; preds = %93
  %122 = load ptr, ptr %5, align 8, !tbaa !109
  %123 = getelementptr inbounds nuw %struct.stash_info, ptr %122, i32 0, i32 9
  store i32 0, ptr %123, align 8, !tbaa !54
  br label %133

124:                                              ; preds = %93
  %125 = load ptr, ptr %10, align 8, !tbaa !11
  %126 = call i32 @strcmp(ptr noundef %125, ptr noundef @ref_stash) #11
  %127 = icmp ne i32 %126, 0
  %128 = xor i1 %127, true
  %129 = zext i1 %128 to i32
  %130 = load ptr, ptr %5, align 8, !tbaa !109
  %131 = getelementptr inbounds nuw %struct.stash_info, ptr %130, i32 0, i32 9
  store i32 %129, ptr %131, align 8, !tbaa !54
  br label %133

132:                                              ; preds = %93
  br label %133

133:                                              ; preds = %132, %124, %121
  %134 = load ptr, ptr %10, align 8, !tbaa !11
  call void @free(ptr noundef %134) #9
  %135 = load i32, ptr %8, align 4, !tbaa !4
  %136 = icmp eq i32 %135, 0
  br i1 %136, label %140, label %137

137:                                              ; preds = %133
  %138 = load i32, ptr %8, align 4, !tbaa !4
  %139 = icmp eq i32 %138, 1
  br label %140

140:                                              ; preds = %137, %133
  %141 = phi i1 [ true, %133 ], [ %139, %137 ]
  %142 = xor i1 %141, true
  %143 = zext i1 %142 to i32
  store i32 %143, ptr %4, align 4
  store i32 1, ptr %17, align 4
  br label %144

144:                                              ; preds = %140, %88, %55, %34
  call void @llvm.lifetime.end.p0(i64 24, ptr %14) #9
  call void @llvm.lifetime.end.p0(i64 36, ptr %13) #9
  call void @llvm.lifetime.end.p0(i64 8, ptr %12) #9
  call void @llvm.lifetime.end.p0(i64 8, ptr %11) #9
  call void @llvm.lifetime.end.p0(i64 8, ptr %10) #9
  call void @llvm.lifetime.end.p0(i64 8, ptr %9) #9
  call void @llvm.lifetime.end.p0(i64 4, ptr %8) #9
  %145 = load i32, ptr %4, align 4
  ret i32 %145
}