; Function Attrs: nounwind uwtable
define internal fastcc range(i32 -1, 2) i32 @get_stash_info(ptr noundef nonnull %0, i32 noundef %1, ptr noundef readonly captures(none) %2) unnamed_addr #0 {
  %4 = alloca ptr, align 8
  %5 = alloca %struct.object_id, align 4
  %6 = alloca %struct.strbuf, align 8
  %7 = alloca %struct.strbuf, align 8
  call void @llvm.lifetime.start.p0(i64 8, ptr nonnull %4) #15
  call void @llvm.lifetime.start.p0(i64 36, ptr nonnull %5) #15
  call void @llvm.lifetime.start.p0(i64 24, ptr nonnull %6) #15
  call void @llvm.memcpy.p0.p0.i64(ptr noundef nonnull align 8 dereferenceable(24) %6, ptr noundef nonnull align 8 dereferenceable(24) @__const.do_push_stash.out, i64 24, i1 false)
  %8 = icmp sgt i32 %1, 1
  br i1 %8, label %9, label %21

9:                                                ; preds = %3
  call void @llvm.lifetime.start.p0(i64 24, ptr nonnull %7) #15
  call void @llvm.memcpy.p0.p0.i64(ptr noundef nonnull align 8 dereferenceable(24) %7, ptr noundef nonnull align 8 dereferenceable(24) @__const.do_push_stash.out, i64 24, i1 false)
  %wide.trip.count = zext nneg i32 %1 to i64
  br label %10

10:                                               ; preds = %9, %10
  %indvars.iv = phi i64 [ 0, %9 ], [ %indvars.iv.next, %10 ]
  %11 = getelementptr inbounds nuw ptr, ptr %2, i64 %indvars.iv
  %12 = load ptr, ptr %11, align 8, !tbaa !54
  call void (ptr, ptr, ...) @strbuf_addf(ptr noundef nonnull %7, ptr noundef nonnull @.str.17, ptr noundef %12) #15
  %indvars.iv.next = add nuw nsw i64 %indvars.iv, 1
  %exitcond.not = icmp eq i64 %indvars.iv.next, %wide.trip.count
  br i1 %exitcond.not, label %13, label %10, !llvm.loop !130

13:                                               ; preds = %10
  %14 = load ptr, ptr @stderr, align 8, !tbaa !52
  %15 = load i32, ptr @git_gettext_enabled, align 4, !tbaa !42
  %.not4.i = icmp eq i32 %15, 0
  br i1 %.not4.i, label %_.exit, label %16

16:                                               ; preds = %13
  %17 = call ptr @dcgettext(ptr noundef null, ptr noundef nonnull @.str.18, i32 noundef 5) #15
  br label %_.exit

_.exit:                                           ; preds = %13, %16
  %.0.i = phi ptr [ %17, %16 ], [ @.str.18, %13 ]
  %18 = getelementptr inbounds nuw i8, ptr %7, i64 16
  %19 = load ptr, ptr %18, align 8, !tbaa !131
  %20 = call i32 (ptr, ptr, ...) @fprintf_ln(ptr noundef %14, ptr noundef %.0.i, ptr noundef %19) #15
  call void @strbuf_release(ptr noundef nonnull %7) #15
  call void @llvm.lifetime.end.p0(i64 24, ptr nonnull %7) #15
  br label %78

21:                                               ; preds = %3
  %22 = icmp eq i32 %1, 1
  br i1 %22, label %23, label %.thread

23:                                               ; preds = %21
  %24 = load ptr, ptr %2, align 8, !tbaa !54
  %.not = icmp eq ptr %24, null
  br i1 %.not, label %.thread, label %36

.thread:                                          ; preds = %21, %23
  %25 = load ptr, ptr @the_repository, align 8, !tbaa !18
  %26 = tail call ptr @get_main_ref_store(ptr noundef %25) #15
  %27 = tail call i32 @refs_ref_exists(ptr noundef %26, ptr noundef nonnull @ref_stash) #15
  %.not37 = icmp eq i32 %27, 0
  br i1 %.not37, label %28, label %34

28:                                               ; preds = %.thread
  %29 = load ptr, ptr @stderr, align 8, !tbaa !52
  %30 = load i32, ptr @git_gettext_enabled, align 4, !tbaa !42
  %.not4.i41 = icmp eq i32 %30, 0
  br i1 %.not4.i41, label %_.exit43, label %31

31:                                               ; preds = %28
  %32 = tail call ptr @dcgettext(ptr noundef null, ptr noundef nonnull @.str.19, i32 noundef 5) #15
  br label %_.exit43

_.exit43:                                         ; preds = %28, %31
  %.0.i42 = phi ptr [ %32, %31 ], [ @.str.19, %28 ]
  %33 = tail call i32 (ptr, ptr, ...) @fprintf_ln(ptr noundef %29, ptr noundef %.0.i42) #15
  br label %78

34:                                               ; preds = %.thread
  %35 = getelementptr inbounds nuw i8, ptr %0, i64 288
  tail call void (ptr, ptr, ...) @strbuf_addf(ptr noundef nonnull %35, ptr noundef nonnull @.str.20, ptr noundef nonnull @ref_stash) #15
  br label %43

36:                                               ; preds = %23
  %37 = tail call i64 @strspn(ptr noundef nonnull %24, ptr noundef nonnull @.str.21) #17
  %38 = tail call i64 @strlen(ptr noundef nonnull dereferenceable(1) %24) #17
  %39 = icmp eq i64 %37, %38
  %40 = getelementptr inbounds nuw i8, ptr %0, i64 288
  br i1 %39, label %41, label %42

41:                                               ; preds = %36
  tail call void (ptr, ptr, ...) @strbuf_addf(ptr noundef nonnull %40, ptr noundef nonnull @.str.22, ptr noundef nonnull @ref_stash, ptr noundef nonnull %24) #15
  br label %43

42:                                               ; preds = %36
  tail call void @strbuf_add(ptr noundef nonnull %40, ptr noundef nonnull %24, i64 noundef %38) #15
  br label %43

43:                                               ; preds = %41, %42, %34
  %44 = getelementptr inbounds nuw i8, ptr %0, i64 304
  %45 = load ptr, ptr %44, align 8, !tbaa !51
  %46 = load ptr, ptr @the_repository, align 8, !tbaa !18
  %47 = tail call i32 @repo_get_oid(ptr noundef %46, ptr noundef %45, ptr noundef nonnull %0) #15
  %.not38 = icmp eq i32 %47, 0
  br i1 %.not38, label %53, label %48

48:                                               ; preds = %43
  %49 = load i32, ptr @git_gettext_enabled, align 4, !tbaa !42
  %.not4.i44 = icmp eq i32 %49, 0
  br i1 %.not4.i44, label %_.exit46, label %50

50:                                               ; preds = %48
  %51 = tail call ptr @dcgettext(ptr noundef null, ptr noundef nonnull @.str.23, i32 noundef 5) #15
  br label %_.exit46

_.exit46:                                         ; preds = %48, %50
  %.0.i45 = phi ptr [ %51, %50 ], [ @.str.23, %48 ]
  %52 = tail call i32 (ptr, ...) @error(ptr noundef %.0.i45, ptr noundef %45) #15
  br label %78

53:                                               ; preds = %43
  tail call fastcc void @assert_stash_like(ptr noundef %0, ptr noundef %45)
  %54 = getelementptr inbounds nuw i8, ptr %0, i64 252
  %55 = tail call i32 (ptr, ptr, ...) @get_oidf(ptr noundef nonnull %54, ptr noundef nonnull @.str.24, ptr noundef %45) #15
  %.not39 = icmp eq i32 %55, 0
  %56 = zext i1 %.not39 to i32
  %57 = getelementptr inbounds nuw i8, ptr %0, i64 316
  store i32 %56, ptr %57, align 4, !tbaa !102
  %58 = tail call ptr @strchrnul(ptr noundef %45, i32 noundef 64) #17
  %59 = ptrtoint ptr %58 to i64
  %60 = ptrtoint ptr %45 to i64
  %61 = sub i64 %59, %60
  call void @strbuf_add(ptr noundef nonnull %6, ptr noundef %45, i64 noundef %61) #15
  %62 = load ptr, ptr @the_repository, align 8, !tbaa !18
  %63 = getelementptr inbounds nuw i8, ptr %6, i64 16
  %64 = load ptr, ptr %63, align 8, !tbaa !131
  %65 = getelementptr inbounds nuw i8, ptr %6, i64 8
  %66 = load i64, ptr %65, align 8, !tbaa !132
  %67 = trunc i64 %66 to i32
  %68 = call i32 @repo_dwim_ref(ptr noundef %62, ptr noundef %64, i32 noundef %67, ptr noundef nonnull %5, ptr noundef nonnull %4, i32 noundef 0) #15
  call void @strbuf_release(ptr noundef nonnull %6) #15
  switch i32 %68, label %74 [
    i32 0, label %.sink.split
    i32 1, label %69
  ]

69:                                               ; preds = %53
  %70 = load ptr, ptr %4, align 8, !tbaa !54
  %71 = call i32 @strcmp(ptr noundef nonnull dereferenceable(1) %70, ptr noundef nonnull dereferenceable(11) @ref_stash) #17
  %.not40 = icmp eq i32 %71, 0
  %72 = zext i1 %.not40 to i32
  br label %.sink.split

.sink.split:                                      ; preds = %53, %69
  %.sink = phi i32 [ %72, %69 ], [ %68, %53 ]
  %73 = getelementptr inbounds nuw i8, ptr %0, i64 312
  store i32 %.sink, ptr %73, align 8, !tbaa !47
  br label %74

74:                                               ; preds = %.sink.split, %53
  %75 = load ptr, ptr %4, align 8, !tbaa !54
  call void @free(ptr noundef %75) #15
  %76 = icmp ugt i32 %68, 1
  %77 = zext i1 %76 to i32
  br label %78

78:                                               ; preds = %74, %_.exit46, %_.exit43, %_.exit
  %.035 = phi i32 [ -1, %_.exit ], [ -1, %_.exit46 ], [ %77, %74 ], [ -1, %_.exit43 ]
  call void @llvm.lifetime.end.p0(i64 24, ptr nonnull %6) #15
  call void @llvm.lifetime.end.p0(i64 36, ptr nonnull %5) #15
  call void @llvm.lifetime.end.p0(i64 8, ptr nonnull %4) #15
  ret i32 %.035
}